target datalayout = "e-m:e-p270:32:32-p271:32:32-p272:64:64-i64:64-i128:128-f80:128-n8:16:32:64-S128"
target triple = "x86_64-pc-linux-gnu"

%struct.AVCodecContext = type { ptr, i32, i32, ptr, i32, i32, ptr, ptr, ptr, i64, i32, i32, ptr, i32, %struct.AVRational, %struct.AVRational, %struct.AVRational, i32, i32, i32, i32, i32, %struct.AVRational, i32, i32, i32, i32, i32, i32, i32, i32, i32, i32, i32, ptr, ptr, i32, float, float, float, float, float, float, float, float, float, i32, i32, i32, i32, i32, i32, i32, i32, i32, i32, i32, i32, ptr, ptr, ptr, i32, i32, i32, i32, i32, i32, i32, i32, i32, i32, %struct.AVChannelLayout, i32, i32, i32, i32, i32, i32, i32, i32, ptr, i32, i32, i32, float, float, i32, i32, i32, i32, i32, ptr, i64, i64, float, float, i32, i32, ptr, ptr, i32, i32, i32, i32, i32, ptr, ptr, ptr, ptr, i32, i32, [8 x i64], i32, i32, i32, i32, i32, i32, i32, ptr, ptr, i32, i32, i32, i32, i32, i32, i32, i32, i32, i32, ptr, ptr, i32, i32, ptr, ptr, ptr, ptr, i32, i32, i64, i32, i32, i64, ptr, i64, ptr, i32, ptr, i32 }
%struct.AVRational = type { i32, i32 }
%struct.AVChannelLayout = type { i32, i32, %union.anon.0, ptr }
%union.anon.0 = type { i64 }
%struct.PAFVideoDecContext = type { ptr, %struct.GetByteContext, i32, i32, i32, [4 x ptr], [4 x i32], i32, i32, ptr }
%struct.GetByteContext = type { ptr, ptr, ptr }

@.str.2 = private unnamed_addr constant [48 x i8] c"width %d and height %d must be multiplie of 4.\0A\00", align 1

; Function Attrs: cold nounwind optsize uwtable
define internal i32 @paf_video_init(ptr noundef %0) #0 {
  %2 = alloca i32, align 4
  %3 = alloca ptr, align 8
  %4 = alloca ptr, align 8
  %5 = alloca i32, align 4
  %6 = alloca i32, align 4
  %7 = alloca i32, align 4
  store ptr %0, ptr %3, align 8, !tbaa !4
  call void @llvm.lifetime.start.p0(i64 8, ptr %4) #10
  %8 = load ptr, ptr %3, align 8, !tbaa !4
  %9 = getelementptr inbounds nuw %struct.AVCodecContext, ptr %8, i32 0, i32 6
  %10 = load ptr, ptr %9, align 8, !tbaa !9
  store ptr %10, ptr %4, align 8, !tbaa !29
  call void @llvm.lifetime.start.p0(i64 4, ptr %5) #10
  call void @llvm.lifetime.start.p0(i64 4, ptr %6) #10
  %11 = load ptr, ptr %3, align 8, !tbaa !4
  %12 = getelementptr inbounds nuw %struct.AVCodecContext, ptr %11, i32 0, i32 18
  %13 = load i32, ptr %12, align 8, !tbaa !31
  %14 = load ptr, ptr %4, align 8, !tbaa !29
  %15 = getelementptr inbounds nuw %struct.PAFVideoDecContext, ptr %14, i32 0, i32 2
  store i32 %13, ptr %15, align 8, !tbaa !32
  %16 = load ptr, ptr %3, align 8, !tbaa !4
  %17 = getelementptr inbounds nuw %struct.AVCodecContext, ptr %16, i32 0, i32 19
  %18 = load i32, ptr %17, align 4, !tbaa !36
  %19 = load ptr, ptr %4, align 8, !tbaa !29
  %20 = getelementptr inbounds nuw %struct.PAFVideoDecContext, ptr %19, i32 0, i32 3
  store i32 %18, ptr %20, align 4, !tbaa !37
  %21 = load ptr, ptr %3, align 8, !tbaa !4
  %22 = getelementptr inbounds nuw %struct.AVCodecContext, ptr %21, i32 0, i32 19
  %23 = load i32, ptr %22, align 4, !tbaa !36
  %24 = and i32 %23, 3
  %25 = icmp ne i32 %24, 0
  br i1 %25, label %32, label %26

26:                                               ; preds = %1
  %27 = load ptr, ptr %3, align 8, !tbaa !4
  %28 = getelementptr inbounds nuw %struct.AVCodecContext, ptr %27, i32 0, i32 18
  %29 = load i32, ptr %28, align 8, !tbaa !31
  %30 = and i32 %29, 3
  %31 = icmp ne i32 %30, 0
  br i1 %31, label %32, label %40

32:                                               ; preds = %26, %1
  %33 = load ptr, ptr %3, align 8, !tbaa !4
  %34 = load ptr, ptr %3, align 8, !tbaa !4
  %35 = getelementptr inbounds nuw %struct.AVCodecContext, ptr %34, i32 0, i32 18
  %36 = load i32, ptr %35, align 8, !tbaa !31
  %37 = load ptr, ptr %3, align 8, !tbaa !4
  %38 = getelementptr inbounds nuw %struct.AVCodecContext, ptr %37, i32 0, i32 19
  %39 = load i32, ptr %38, align 4, !tbaa !36
  call void (ptr, i32, ptr, ...) @av_log(ptr noundef %33, i32 noundef 16, ptr noundef @.str.2, i32 noundef %36, i32 noundef %39)
  store i32 -1094995529, ptr %2, align 4
  store i32 1, ptr %7, align 4
  br label %122

40:                                               ; preds = %26
  %41 = load ptr, ptr %3, align 8, !tbaa !4
  %42 = getelementptr inbounds nuw %struct.AVCodecContext, ptr %41, i32 0, i32 23
  store i32 11, ptr %42, align 8, !tbaa !38
  %43 = load ptr, ptr %3, align 8, !tbaa !4
  %44 = getelementptr inbounds nuw %struct.AVCodecContext, ptr %43, i32 0, i32 18
  %45 = load i32, ptr %44, align 8, !tbaa !31
  %46 = load ptr, ptr %3, align 8, !tbaa !4
  %47 = getelementptr inbounds nuw %struct.AVCodecContext, ptr %46, i32 0, i32 19
  %48 = load i32, ptr %47, align 4, !tbaa !36
  %49 = add nsw i32 %48, 256
  %50 = sub nsw i32 %49, 1
  %51 = and i32 %50, -256
  %52 = load ptr, ptr %3, align 8, !tbaa !4
  %53 = getelementptr inbounds nuw %struct.AVCodecContext, ptr %52, i32 0, i32 141
  %54 = load i64, ptr %53, align 8, !tbaa !39
  %55 = load ptr, ptr %3, align 8, !tbaa !4
  %56 = getelementptr inbounds nuw %struct.AVCodecContext, ptr %55, i32 0, i32 23
  %57 = load i32, ptr %56, align 8, !tbaa !38
  %58 = load ptr, ptr %3, align 8, !tbaa !4
  %59 = call i32 @av_image_check_size2(i32 noundef %45, i32 noundef %51, i64 noundef %54, i32 noundef %57, i32 noundef 0, ptr noundef %58)
  store i32 %59, ptr %6, align 4, !tbaa !40
  %60 = load i32, ptr %6, align 4, !tbaa !40
  %61 = icmp slt i32 %60, 0
  br i1 %61, label %62, label %64

62:                                               ; preds = %40
  %63 = load i32, ptr %6, align 4, !tbaa !40
  store i32 %63, ptr %2, align 4
  store i32 1, ptr %7, align 4
  br label %122

64:                                               ; preds = %40
  %65 = call ptr @av_frame_alloc()
  %66 = load ptr, ptr %4, align 8, !tbaa !29
  %67 = getelementptr inbounds nuw %struct.PAFVideoDecContext, ptr %66, i32 0, i32 0
  store ptr %65, ptr %67, align 8, !tbaa !41
  %68 = load ptr, ptr %4, align 8, !tbaa !29
  %69 = getelementptr inbounds nuw %struct.PAFVideoDecContext, ptr %68, i32 0, i32 0
  %70 = load ptr, ptr %69, align 8, !tbaa !41
  %71 = icmp ne ptr %70, null
  br i1 %71, label %73, label %72

72:                                               ; preds = %64
  store i32 -12, ptr %2, align 4
  store i32 1, ptr %7, align 4
  br label %122

73:                                               ; preds = %64
  %74 = load ptr, ptr %3, align 8, !tbaa !4
  %75 = getelementptr inbounds nuw %struct.AVCodecContext, ptr %74, i32 0, i32 18
  %76 = load i32, ptr %75, align 8, !tbaa !31
  %77 = load ptr, ptr %3, align 8, !tbaa !4
  %78 = getelementptr inbounds nuw %struct.AVCodecContext, ptr %77, i32 0, i32 19
  %79 = load i32, ptr %78, align 4, !tbaa !36
  %80 = add nsw i32 %79, 256
  %81 = sub nsw i32 %80, 1
  %82 = and i32 %81, -256
  %83 = mul nsw i32 %76, %82
  %84 = load ptr, ptr %4, align 8, !tbaa !29
  %85 = getelementptr inbounds nuw %struct.PAFVideoDecContext, ptr %84, i32 0, i32 7
  store i32 %83, ptr %85, align 8, !tbaa !42
  %86 = load ptr, ptr %3, align 8, !tbaa !4
  %87 = getelementptr inbounds nuw %struct.AVCodecContext, ptr %86, i32 0, i32 18
  %88 = load i32, ptr %87, align 8, !tbaa !31
  %89 = load ptr, ptr %3, align 8, !tbaa !4
  %90 = getelementptr inbounds nuw %struct.AVCodecContext, ptr %89, i32 0, i32 19
  %91 = load i32, ptr %90, align 4, !tbaa !36
  %92 = mul nsw i32 %88, %91
  %93 = load ptr, ptr %4, align 8, !tbaa !29
  %94 = getelementptr inbounds nuw %struct.PAFVideoDecContext, ptr %93, i32 0, i32 8
  store i32 %92, ptr %94, align 4, !tbaa !43
  store i32 0, ptr %5, align 4, !tbaa !40
  br label %95

95:                                               ; preds = %118, %73
  %96 = load i32, ptr %5, align 4, !tbaa !40
  %97 = icmp slt i32 %96, 4
  br i1 %97, label %98, label %121

98:                                               ; preds = %95
  %99 = load ptr, ptr %4, align 8, !tbaa !29
  %100 = getelementptr inbounds nuw %struct.PAFVideoDecContext, ptr %99, i32 0, i32 7
  %101 = load i32, ptr %100, align 8, !tbaa !42
  %102 = sext i32 %101 to i64
  %103 = call noalias ptr @av_mallocz(i64 noundef %102)
  %104 = load ptr, ptr %4, align 8, !tbaa !29
  %105 = getelementptr inbounds nuw %struct.PAFVideoDecContext, ptr %104, i32 0, i32 5
  %106 = load i32, ptr %5, align 4, !tbaa !40
  %107 = sext i32 %106 to i64
  %108 = getelementptr inbounds [4 x ptr], ptr %105, i64 0, i64 %107
  store ptr %103, ptr %108, align 8, !tbaa !44
  %109 = load ptr, ptr %4, align 8, !tbaa !29
  %110 = getelementptr inbounds nuw %struct.PAFVideoDecContext, ptr %109, i32 0, i32 5
  %111 = load i32, ptr %5, align 4, !tbaa !40
  %112 = sext i32 %111 to i64
  %113 = getelementptr inbounds [4 x ptr], ptr %110, i64 0, i64 %112
  %114 = load ptr, ptr %113, align 8, !tbaa !44
  %115 = icmp ne ptr %114, null
  br i1 %115, label %117, label %116

116:                                              ; preds = %98
  store i32 -12, ptr %2, align 4
  store i32 1, ptr %7, align 4
  br label %122

117:                                              ; preds = %98
  br label %118

118:                                              ; preds = %117
  %119 = load i32, ptr %5, align 4, !tbaa !40
  %120 = add nsw i32 %119, 1
  store i32 %120, ptr %5, align 4, !tbaa !40
  br label %95, !llvm.loop !45

121:                                              ; preds = %95
  store i32 0, ptr %2, align 4
  store i32 1, ptr %7, align 4
  br label %122

122:                                              ; preds = %121, %116, %72, %62, %32
  call void @llvm.lifetime.end.p0(i64 4, ptr %6) #10
  call void @llvm.lifetime.end.p0(i64 4, ptr %5) #10
  call void @llvm.lifetime.end.p0(i64 8, ptr %4) #10
  %123 = load i32, ptr %2, align 4
  ret i32 %123
}