; Function Attrs: cold nounwind optsize uwtable
define internal range(i32 -2147483648, 1) i32 @paf_video_init(ptr noundef %0) #0 {
  %2 = getelementptr inbounds nuw i8, ptr %0, i64 32
  %3 = load ptr, ptr %2, align 8, !tbaa !4
  %4 = getelementptr inbounds nuw i8, ptr %0, i64 112
  %5 = load i32, ptr %4, align 8, !tbaa !27
  %6 = getelementptr inbounds nuw i8, ptr %3, i64 32
  store i32 %5, ptr %6, align 8, !tbaa !28
  %7 = getelementptr inbounds nuw i8, ptr %0, i64 116
  %8 = load i32, ptr %7, align 4, !tbaa !32
  %9 = getelementptr inbounds nuw i8, ptr %3, i64 36
  store i32 %8, ptr %9, align 4, !tbaa !33
  %10 = and i32 %8, 3
  %.not = icmp eq i32 %10, 0
  %11 = and i32 %5, 3
  %.not35 = icmp eq i32 %11, 0
  %or.cond = select i1 %.not, i1 %.not35, i1 false
  br i1 %or.cond, label %13, label %12

12:                                               ; preds = %1
  tail call void (ptr, i32, ptr, ...) @av_log(ptr noundef nonnull %0, i32 noundef 16, ptr noundef nonnull @.str.2, i32 noundef %5, i32 noundef %8) #8
  br label %.loopexit

13:                                               ; preds = %1
  %14 = getelementptr inbounds nuw i8, ptr %0, i64 136
  store i32 11, ptr %14, align 8, !tbaa !34
  %15 = add nsw i32 %8, 255
  %16 = and i32 %15, -256
  %17 = getelementptr inbounds nuw i8, ptr %0, i64 792
  %18 = load i64, ptr %17, align 8, !tbaa !35
  %19 = tail call i32 @av_image_check_size2(i32 noundef %5, i32 noundef %16, i64 noundef %18, i32 noundef 11, i32 noundef 0, ptr noundef nonnull %0) #8
  %20 = icmp slt i32 %19, 0
  br i1 %20, label %.loopexit, label %21

21:                                               ; preds = %13
  %22 = tail call ptr @av_frame_alloc() #8
  store ptr %22, ptr %3, align 8, !tbaa !36
  %.not36 = icmp eq ptr %22, null
  br i1 %.not36, label %.loopexit, label %23

23:                                               ; preds = %21
  %24 = load i32, ptr %4, align 8, !tbaa !27
  %25 = load i32, ptr %7, align 4, !tbaa !32
  %26 = add nsw i32 %25, 255
  %27 = and i32 %26, -256
  %28 = mul nsw i32 %27, %24
  %29 = getelementptr inbounds nuw i8, ptr %3, i64 96
  store i32 %28, ptr %29, align 8, !tbaa !37
  %30 = mul nsw i32 %25, %24
  %31 = getelementptr inbounds nuw i8, ptr %3, i64 100
  store i32 %30, ptr %31, align 4, !tbaa !38
  %32 = getelementptr inbounds nuw i8, ptr %3, i64 48
  br label %34

33:                                               ; preds = %34
  %indvars.iv.next = add nuw nsw i64 %indvars.iv, 1
  %exitcond.not = icmp eq i64 %indvars.iv.next, 4
  br i1 %exitcond.not, label %.loopexit, label %34, !llvm.loop !39

34:                                               ; preds = %23, %33
  %indvars.iv = phi i64 [ 0, %23 ], [ %indvars.iv.next, %33 ]
  %35 = load i32, ptr %29, align 8, !tbaa !37
  %36 = sext i32 %35 to i64
  %37 = tail call noalias ptr @av_mallocz(i64 noundef %36) #8
  %38 = getelementptr inbounds nuw [4 x ptr], ptr %32, i64 0, i64 %indvars.iv
  store ptr %37, ptr %38, align 8, !tbaa !41
  %.not37 = icmp eq ptr %37, null
  br i1 %.not37, label %.loopexit, label %33

.loopexit:                                        ; preds = %33, %34, %21, %13, %12
  %.0 = phi i32 [ -1094995529, %12 ], [ %19, %13 ], [ -12, %21 ], [ 0, %33 ], [ -12, %34 ]
  ret i32 %.0
}